target datalayout = "e-m:e-p270:32:32-p271:32:32-p272:64:64-i64:64-i128:128-f80:128-n8:16:32:64-S128"
target triple = "x86_64-unknown-linux-gnu"

%class.b3PgsJacobiSolver = type { ptr, %class.b3AlignedObjectArray, %class.b3AlignedObjectArray.0, %class.b3AlignedObjectArray.0, %class.b3AlignedObjectArray.0, %class.b3AlignedObjectArray.0, %class.b3AlignedObjectArray.4, %class.b3AlignedObjectArray.4, %class.b3AlignedObjectArray.4, %class.b3AlignedObjectArray.8, %class.b3AlignedObjectArray.4, %class.b3AlignedObjectArray.4, %class.b3AlignedObjectArray.12, %class.b3AlignedObjectArray.12, i8, i32, i32, i64 }
%class.b3AlignedObjectArray = type <{ %class.b3AlignedAllocator, [3 x i8], i32, i32, [4 x i8], ptr, i8, [7 x i8] }>
%class.b3AlignedAllocator = type { i8 }
%class.b3AlignedObjectArray.0 = type <{ %class.b3AlignedAllocator.1, [3 x i8], i32, i32, [4 x i8], ptr, i8, [7 x i8] }>
%class.b3AlignedAllocator.1 = type { i8 }
%class.b3AlignedObjectArray.8 = type <{ %class.b3AlignedAllocator.9, [3 x i8], i32, i32, [4 x i8], ptr, i8, [7 x i8] }>
%class.b3AlignedAllocator.9 = type { i8 }
%class.b3AlignedObjectArray.4 = type <{ %class.b3AlignedAllocator.5, [3 x i8], i32, i32, [4 x i8], ptr, i8, [7 x i8] }>
%class.b3AlignedAllocator.5 = type { i8 }
%class.b3AlignedObjectArray.12 = type <{ %class.b3AlignedAllocator.13, [3 x i8], i32, i32, [4 x i8], ptr, i8, [7 x i8] }>
%class.b3AlignedAllocator.13 = type { i8 }

; Function Attrs: mustprogress nounwind uwtable
define dso_local noundef i64 @_ZN17b3PgsJacobiSolver7b3Rand2Ev(ptr noundef nonnull align 8 dereferenceable(448) %this) #1 align 2 {
entry:
  %this.addr = alloca ptr, align 8
  store ptr %this, ptr %this.addr, align 8
  %this1 = load ptr, ptr %this.addr, align 8
  %m_btSeed2 = getelementptr inbounds %class.b3PgsJacobiSolver, ptr %this1, i32 0, i32 17
  %0 = load i64, ptr %m_btSeed2, align 8
  %mul = mul i64 1664525, %0
  %add = add i64 %mul, 1013904223
  %and = and i64 %add, 4294967295
  %m_btSeed22 = getelementptr inbounds %class.b3PgsJacobiSolver, ptr %this1, i32 0, i32 17
  store i64 %and, ptr %m_btSeed22, align 8
  %m_btSeed23 = getelementptr inbounds %class.b3PgsJacobiSolver, ptr %this1, i32 0, i32 17
  %1 = load i64, ptr %m_btSeed23, align 8
  ret i64 %1
}