; Function Attrs: mustprogress nofree norecurse nosync nounwind willreturn memory(argmem: readwrite) uwtable
define dso_local noundef i64 @_ZN17b3PgsJacobiSolver7b3Rand2Ev(ptr nocapture noundef nonnull align 8 dereferenceable(448) %this) local_unnamed_addr #6 align 2 {
entry:
  %m_btSeed2 = getelementptr inbounds i8, ptr %this, i64 440
  %0 = load i64, ptr %m_btSeed2, align 8
  %mul = mul i64 %0, 1664525
  %add = add i64 %mul, 1013904223
  %and = and i64 %add, 4294967295
  store i64 %and, ptr %m_btSeed2, align 8
  ret i64 %and
}